; Function Attrs: mustprogress uwtable
define hidden ptr @_ZNK3ade5Graph13getMetadataIdERKNSt7__cxx1112basic_stringIcSt11char_traitsIcESaIcEEE(ptr noundef nonnull align 8 dereferenceable(168) %0, ptr noundef nonnull align 8 dereferenceable(32) %1) local_unnamed_addr #2 align 2 {
  %3 = alloca %"class.ade::details::MetadataId", align 8
  %4 = getelementptr inbounds nuw i8, ptr %0, i64 48
  %5 = tail call noundef nonnull align 8 dereferenceable(8) ptr @_ZNSt8__detail9_Map_baseINSt7__cxx1112basic_stringIcSt11char_traitsIcESaIcEEESt4pairIKS6_N3ade5Graph2IdEESaISC_ENS_10_Select1stESt8equal_toIS6_ESt4hashIS6_ENS_18_Mod_range_hashingENS_20_Default_ranged_hashENS_20_Prime_rehash_policyENS_17_Hashtable_traitsILb1ELb0ELb1EEELb1EEixERS8_(ptr noundef nonnull align 8 dereferenceable(56) %4, ptr noundef nonnull align 8 dereferenceable(32) %1)
  %6 = load ptr, ptr %5, align 8, !tbaa !22
  call void @_ZN3ade7details10MetadataIdC1EPv(ptr noundef nonnull align 8 dereferenceable(8) %3, ptr noundef %6)
  %7 = load ptr, ptr %3, align 8
  ret ptr %7
}